target datalayout = "e-m:e-p270:32:32-p271:32:32-p272:64:64-i64:64-i128:128-f80:128-n8:16:32:64-S128"
target triple = "x86_64-pc-linux-gnu"

%"class.marisa::Keyset" = type { %"class.marisa::scoped_array", i64, i64, %"class.marisa::scoped_array", i64, i64, %"class.marisa::scoped_array.0", i64, i64, ptr, i64, i64, i64 }
%"class.marisa::scoped_array" = type { ptr }
%"class.marisa::scoped_array.0" = type { ptr }

; Function Attrs: mustprogress nounwind uwtable
define void @_ZN6marisa6Keyset5resetEv(ptr noundef nonnull align 8 dereferenceable(104) %0) #1 align 2 {
  %2 = alloca ptr, align 8
  store ptr %0, ptr %2, align 8
  %3 = load ptr, ptr %2, align 8
  %4 = getelementptr inbounds %"class.marisa::Keyset", ptr %3, i32 0, i32 1
  store i64 0, ptr %4, align 8
  %5 = getelementptr inbounds %"class.marisa::Keyset", ptr %3, i32 0, i32 4
  store i64 0, ptr %5, align 8
  %6 = getelementptr inbounds %"class.marisa::Keyset", ptr %3, i32 0, i32 9
  store ptr null, ptr %6, align 8
  %7 = getelementptr inbounds %"class.marisa::Keyset", ptr %3, i32 0, i32 10
  store i64 0, ptr %7, align 8
  %8 = getelementptr inbounds %"class.marisa::Keyset", ptr %3, i32 0, i32 11
  store i64 0, ptr %8, align 8
  %9 = getelementptr inbounds %"class.marisa::Keyset", ptr %3, i32 0, i32 12
  store i64 0, ptr %9, align 8
  ret void
}