; Function Attrs: mustprogress nofree norecurse nosync nounwind willreturn memory(argmem: write) uwtable
define void @_ZN6marisa6Keyset5resetEv(ptr nocapture noundef nonnull writeonly align 8 dereferenceable(104) %0) local_unnamed_addr #0 align 2 {
  %2 = getelementptr inbounds i8, ptr %0, i64 8
  store i64 0, ptr %2, align 8
  %3 = getelementptr inbounds i8, ptr %0, i64 32
  store i64 0, ptr %3, align 8
  %4 = getelementptr inbounds i8, ptr %0, i64 72
  tail call void @llvm.memset.p0.i64(ptr noundef nonnull align 8 dereferenceable(32) %4, i8 0, i64 32, i1 false)
  ret void
}